; Function Attrs: nounwind uwtable
define ptr @l_Lean_Elab_Tactic_Try_evalAndSuggest___lambda__1(ptr noundef %0, ptr noundef %1, ptr noundef %2, ptr noundef %3, ptr noundef %4, ptr noundef %5, ptr noundef %6, ptr noundef %7, ptr noundef %8, ptr noundef %9, ptr noundef %10, ptr noundef %11) local_unnamed_addr #0 {
  %13 = tail call ptr @l___private_Lean_Elab_Tactic_Try_0__Lean_Elab_Tactic_Try_getSuggestionsCore(ptr noundef %2)
  %14 = getelementptr i8, ptr %13, i64 8
  %.val.i = load i64, ptr %14, align 8, !tbaa !13
  %15 = tail call ptr @l_Array_mapMUnsafe_map___at___private_Lean_Elab_Tactic_Try_0__Lean_Elab_Tactic_Try_getSuggestions___spec__1(i64 noundef %.val.i, i64 noundef 0, ptr noundef %13)
  %16 = getelementptr inbounds nuw i8, ptr %0, i64 8
  %17 = load ptr, ptr %16, align 8, !tbaa !4
  %18 = ptrtoint ptr %17 to i64
  %19 = and i64 %18, 1
  %.not = icmp eq i64 %19, 0
  br i1 %.not, label %20, label %lean_inc.exit

20:                                               ; preds = %12
  %.val.i57 = load i32, ptr %17, align 4, !tbaa !8
  %21 = icmp sgt i32 %.val.i57, 0
  br i1 %21, label %22, label %24, !prof !11

22:                                               ; preds = %20
  %23 = add nuw i32 %.val.i57, 1
  store i32 %23, ptr %17, align 4, !tbaa !8
  br label %lean_inc.exit

24:                                               ; preds = %20
  %.not.i58 = icmp eq i32 %.val.i57, 0
  br i1 %.not.i58, label %lean_inc.exit, label %25

25:                                               ; preds = %24
  tail call void @lean_inc_ref_cold(ptr noundef nonnull %17) #5
  br label %lean_inc.exit

lean_inc.exit:                                    ; preds = %25, %24, %22, %12
  %26 = tail call ptr @l_Array_toSubarray___rarg(ptr noundef %15, ptr noundef nonnull inttoptr (i64 1 to ptr), ptr noundef %17) #5
  %27 = tail call ptr @l_Array_ofSubarray___rarg(ptr noundef %26) #5
  %28 = ptrtoint ptr %26 to i64
  %29 = and i64 %28, 1
  %.not59 = icmp eq i64 %29, 0
  br i1 %.not59, label %30, label %lean_dec.exit44

30:                                               ; preds = %lean_inc.exit
  %31 = load i32, ptr %26, align 4, !tbaa !8
  %32 = icmp sgt i32 %31, 1
  br i1 %32, label %33, label %35, !prof !11

33:                                               ; preds = %30
  %34 = add nsw i32 %31, -1
  store i32 %34, ptr %26, align 4, !tbaa !8
  br label %lean_dec.exit44

35:                                               ; preds = %30
  %.not.i = icmp eq i32 %31, 0
  br i1 %.not.i, label %lean_dec.exit44, label %36

36:                                               ; preds = %35
  tail call void @lean_dec_ref_cold(ptr noundef nonnull %26) #5
  br label %lean_dec.exit44

lean_dec.exit44:                                  ; preds = %36, %35, %33, %lean_inc.exit
  %37 = tail call zeroext i8 @l_Array_isEmpty___rarg(ptr noundef %27) #5
  %38 = icmp eq i8 %37, 0
  br i1 %38, label %39, label %50

39:                                               ; preds = %lean_dec.exit44
  %40 = ptrtoint ptr %0 to i64
  %41 = and i64 %40, 1
  %.not65 = icmp eq i64 %41, 0
  br i1 %.not65, label %42, label %lean_dec.exit43

42:                                               ; preds = %39
  %43 = load i32, ptr %0, align 4, !tbaa !8
  %44 = icmp sgt i32 %43, 1
  br i1 %44, label %45, label %47, !prof !11

45:                                               ; preds = %42
  %46 = add nsw i32 %43, -1
  store i32 %46, ptr %0, align 4, !tbaa !8
  br label %lean_dec.exit43

47:                                               ; preds = %42
  %.not.i45 = icmp eq i32 %43, 0
  br i1 %.not.i45, label %lean_dec.exit43, label %48

48:                                               ; preds = %47
  tail call void @lean_dec_ref_cold(ptr noundef nonnull %0) #5
  br label %lean_dec.exit43

lean_dec.exit43:                                  ; preds = %48, %47, %45, %39
  %49 = tail call ptr @l___private_Lean_Elab_Tactic_Try_0__Lean_Elab_Tactic_Try_addSuggestions(ptr noundef %1, ptr noundef %27, ptr poison, ptr poison, ptr poison, ptr poison, ptr noundef %7, ptr noundef %8, ptr noundef %9, ptr noundef %10, ptr noundef %11)
  br label %lean_dec.exit

50:                                               ; preds = %lean_dec.exit44
  %51 = ptrtoint ptr %27 to i64
  %52 = and i64 %51, 1
  %.not60 = icmp eq i64 %52, 0
  br i1 %.not60, label %53, label %lean_dec.exit42

53:                                               ; preds = %50
  %54 = load i32, ptr %27, align 4, !tbaa !8
  %55 = icmp sgt i32 %54, 1
  br i1 %55, label %56, label %58, !prof !11

56:                                               ; preds = %53
  %57 = add nsw i32 %54, -1
  store i32 %57, ptr %27, align 4, !tbaa !8
  br label %lean_dec.exit42

58:                                               ; preds = %53
  %.not.i47 = icmp eq i32 %54, 0
  br i1 %.not.i47, label %lean_dec.exit42, label %59

59:                                               ; preds = %58
  tail call void @lean_dec_ref_cold(ptr noundef nonnull %27) #5
  br label %lean_dec.exit42

lean_dec.exit42:                                  ; preds = %59, %58, %56, %50
  %60 = ptrtoint ptr %1 to i64
  %61 = and i64 %60, 1
  %.not61 = icmp eq i64 %61, 0
  br i1 %.not61, label %62, label %lean_dec.exit41

62:                                               ; preds = %lean_dec.exit42
  %63 = load i32, ptr %1, align 4, !tbaa !8
  %64 = icmp sgt i32 %63, 1
  br i1 %64, label %65, label %67, !prof !11

65:                                               ; preds = %62
  %66 = add nsw i32 %63, -1
  store i32 %66, ptr %1, align 4, !tbaa !8
  br label %lean_dec.exit41

67:                                               ; preds = %62
  %.not.i49 = icmp eq i32 %63, 0
  br i1 %.not.i49, label %lean_dec.exit41, label %68

68:                                               ; preds = %67
  tail call void @lean_dec_ref_cold(ptr noundef nonnull %1) #5
  br label %lean_dec.exit41

lean_dec.exit41:                                  ; preds = %68, %67, %65, %lean_dec.exit42
  %69 = tail call ptr @l___private_Lean_Elab_Tactic_Try_0__Lean_Elab_Tactic_Try_throwEvalAndSuggestFailed___rarg(ptr noundef nonnull %0, ptr noundef %3, ptr noundef %4, ptr noundef %5, ptr noundef %6, ptr noundef %7, ptr noundef %8, ptr noundef %9, ptr noundef %10, ptr noundef %11)
  %70 = ptrtoint ptr %10 to i64
  %71 = and i64 %70, 1
  %.not62 = icmp eq i64 %71, 0
  br i1 %.not62, label %72, label %lean_dec.exit40

72:                                               ; preds = %lean_dec.exit41
  %73 = load i32, ptr %10, align 4, !tbaa !8
  %74 = icmp sgt i32 %73, 1
  br i1 %74, label %75, label %77, !prof !11

75:                                               ; preds = %72
  %76 = add nsw i32 %73, -1
  store i32 %76, ptr %10, align 4, !tbaa !8
  br label %lean_dec.exit40

77:                                               ; preds = %72
  %.not.i51 = icmp eq i32 %73, 0
  br i1 %.not.i51, label %lean_dec.exit40, label %78

78:                                               ; preds = %77
  tail call void @lean_dec_ref_cold(ptr noundef nonnull %10) #5
  br label %lean_dec.exit40

lean_dec.exit40:                                  ; preds = %78, %77, %75, %lean_dec.exit41
  %79 = ptrtoint ptr %9 to i64
  %80 = and i64 %79, 1
  %.not63 = icmp eq i64 %80, 0
  br i1 %.not63, label %81, label %lean_dec.exit39

81:                                               ; preds = %lean_dec.exit40
  %82 = load i32, ptr %9, align 4, !tbaa !8
  %83 = icmp sgt i32 %82, 1
  br i1 %83, label %84, label %86, !prof !11

84:                                               ; preds = %81
  %85 = add nsw i32 %82, -1
  store i32 %85, ptr %9, align 4, !tbaa !8
  br label %lean_dec.exit39

86:                                               ; preds = %81
  %.not.i53 = icmp eq i32 %82, 0
  br i1 %.not.i53, label %lean_dec.exit39, label %87

87:                                               ; preds = %86
  tail call void @lean_dec_ref_cold(ptr noundef nonnull %9) #5
  br label %lean_dec.exit39

lean_dec.exit39:                                  ; preds = %87, %86, %84, %lean_dec.exit40
  %88 = ptrtoint ptr %0 to i64
  %89 = and i64 %88, 1
  %.not64 = icmp eq i64 %89, 0
  br i1 %.not64, label %90, label %lean_dec.exit

90:                                               ; preds = %lean_dec.exit39
  %91 = load i32, ptr %0, align 4, !tbaa !8
  %92 = icmp sgt i32 %91, 1
  br i1 %92, label %93, label %95, !prof !11

93:                                               ; preds = %90
  %94 = add nsw i32 %91, -1
  store i32 %94, ptr %0, align 4, !tbaa !8
  br label %lean_dec.exit

95:                                               ; preds = %90
  %.not.i55 = icmp eq i32 %91, 0
  br i1 %.not.i55, label %lean_dec.exit, label %96

96:                                               ; preds = %95
  tail call void @lean_dec_ref_cold(ptr noundef nonnull %0) #5
  br label %lean_dec.exit

lean_dec.exit:                                    ; preds = %lean_dec.exit39, %93, %95, %96, %lean_dec.exit43
  %.0 = phi ptr [ %49, %lean_dec.exit43 ], [ %69, %96 ], [ %69, %95 ], [ %69, %93 ], [ %69, %lean_dec.exit39 ]
  ret ptr %.0
}